target datalayout = "e-m:e-p270:32:32-p271:32:32-p272:64:64-i64:64-i128:128-f80:128-n8:16:32:64-S128"
target triple = "x86_64-pc-linux-gnu"

%struct.pmix_globals_t = type { i32, %struct.pmix_proc, %struct.pmix_value, %struct.pmix_value, ptr, i32, i32, ptr, i32, i32, i32, i32, i32, ptr, ptr, i32, %struct.pmix_events_t, i8, i8, %struct.timeval, %struct.pmix_list_t, %struct.pmix_pointer_array_t, i32, i32, %struct.pmix_hotel_t, i8, %struct.pmix_list_t, i8, i8, i8, i64, %struct.pmix_list_t, %struct.pmix_topology_t, %struct.pmix_cpuset_t, i8, i8, %struct.pmix_iof_flags_t, %struct.pmix_keyindex_t }
%struct.pmix_proc = type { [256 x i8], i32 }
%struct.pmix_value = type { i16, %union.anon.8 }
%union.anon.8 = type { %struct.pmix_envar_t }
%struct.pmix_envar_t = type { ptr, ptr, i8 }
%struct.pmix_events_t = type { %struct.pmix_object_t, i64, ptr, ptr, %struct.pmix_list_t, %struct.pmix_list_t, %struct.pmix_list_t, %struct.pmix_list_t }
%struct.pmix_object_t = type { %union.pthread_mutex_t, ptr, i32, %struct.pmix_tma }
%union.pthread_mutex_t = type { %struct.__pthread_mutex_s }
%struct.__pthread_mutex_s = type { i32, i32, i32, i32, i32, i16, i16, %struct.__pthread_internal_list }
%struct.__pthread_internal_list = type { ptr, ptr }
%struct.pmix_tma = type { ptr, ptr, ptr, ptr, ptr, ptr, ptr, ptr }
%struct.timeval = type { i64, i64 }
%struct.pmix_pointer_array_t = type { %struct.pmix_object_t, i32, i32, i32, i32, i32, ptr, ptr }
%struct.pmix_hotel_t = type { %struct.pmix_object_t, i32, ptr, %struct.timeval, ptr, ptr, ptr, ptr, i32 }
%struct.pmix_list_t = type { %struct.pmix_object_t, %struct.pmix_list_item_t, i64 }
%struct.pmix_list_item_t = type { %struct.pmix_object_t, ptr, ptr, i32 }
%struct.pmix_topology_t = type { ptr, ptr }
%struct.pmix_cpuset_t = type { ptr, ptr }
%struct.pmix_iof_flags_t = type { i8, i8, i8, i8, i8, i8, i8, ptr, ptr, i8, i8, i8, i8, i8, i8 }
%struct.pmix_keyindex_t = type { %struct.pmix_object_t, ptr, i32 }
%struct.pmix_mca_base_framework_t = type { ptr, ptr, ptr, ptr, ptr, ptr, i32, i32, ptr, ptr, i32, i32, %struct.pmix_list_t, %struct.pmix_list_t }
%struct.pmix_output_desc_t = type { i8, i8, i32, i8, i32, ptr, ptr, i32, ptr, i32, i8, i8, i8, i8, ptr, i32, i32 }

@pmix_globals = external global %struct.pmix_globals_t, align 8
@pmix_pfexec_base_framework = external global %struct.pmix_mca_base_framework_t, align 8
@pmix_output_info = external global [0 x %struct.pmix_output_desc_t], align 8
@.str = private unnamed_addr constant [54 x i8] c"%s pfexec:linux:SENT SIGNAL %d TO PID %d GOT ERRNO %d\00", align 1
@.str.1 = private unnamed_addr constant [49 x i8] c"%s pfexec:linux:SENT SIGNAL %d TO PID %d SUCCESS\00", align 1

; Function Attrs: nounwind uwtable
define internal i32 @sigproc(i32 noundef %0, i32 noundef %1) #0 {
  %3 = alloca i32, align 4
  %4 = alloca i32, align 4
  %5 = alloca i32, align 4
  %6 = alloca i32, align 4
  %7 = alloca i32, align 4
  %8 = alloca i32, align 4
  store i32 %0, ptr %4, align 4, !tbaa !55
  store i32 %1, ptr %5, align 4, !tbaa !55
  call void @llvm.lifetime.start.p0(i64 4, ptr %6) #14
  call void @llvm.lifetime.start.p0(i64 4, ptr %7) #14
  %9 = load i32, ptr %4, align 4, !tbaa !55
  store i32 %9, ptr %7, align 4, !tbaa !55
  %10 = load i32, ptr %4, align 4, !tbaa !55
  %11 = call i32 @getpgid(i32 noundef %10) #14
  store i32 %11, ptr %6, align 4, !tbaa !55
  %12 = load i32, ptr %6, align 4, !tbaa !55
  %13 = icmp ne i32 -1, %12
  br i1 %13, label %14, label %17

14:                                               ; preds = %2
  %15 = load i32, ptr %6, align 4, !tbaa !55
  %16 = sub nsw i32 0, %15
  store i32 %16, ptr %7, align 4, !tbaa !55
  br label %17

17:                                               ; preds = %14, %2
  %18 = load i32, ptr %7, align 4, !tbaa !55
  %19 = load i32, ptr %5, align 4, !tbaa !55
  %20 = call i32 @kill(i32 noundef %18, i32 noundef %19) #14
  %21 = icmp ne i32 0, %20
  br i1 %21, label %22, label %50

22:                                               ; preds = %17
  %23 = call ptr @__errno_location() #16
  %24 = load i32, ptr %23, align 4, !tbaa !55
  %25 = icmp ne i32 3, %24
  br i1 %25, label %26, label %49

26:                                               ; preds = %22
  %27 = load i32, ptr getelementptr inbounds nuw (%struct.pmix_mca_base_framework_t, ptr @pmix_pfexec_base_framework, i32 0, i32 11), align 4, !tbaa !7
  %28 = icmp sge i32 %27, 0
  br i1 %28, label %29, label %46

29:                                               ; preds = %26
  %30 = load i32, ptr getelementptr inbounds nuw (%struct.pmix_mca_base_framework_t, ptr @pmix_pfexec_base_framework, i32 0, i32 11), align 4, !tbaa !7
  %31 = icmp slt i32 %30, 64
  br i1 %31, label %32, label %46

32:                                               ; preds = %29
  %33 = load i32, ptr getelementptr inbounds nuw (%struct.pmix_mca_base_framework_t, ptr @pmix_pfexec_base_framework, i32 0, i32 11), align 4, !tbaa !7
  %34 = sext i32 %33 to i64
  %35 = getelementptr inbounds [0 x %struct.pmix_output_desc_t], ptr @pmix_output_info, i64 0, i64 %34
  %36 = getelementptr inbounds nuw %struct.pmix_output_desc_t, ptr %35, i32 0, i32 2
  %37 = load i32, ptr %36, align 4, !tbaa !19
  %38 = icmp sge i32 %37, 2
  br i1 %38, label %39, label %46

39:                                               ; preds = %32
  %40 = load i32, ptr getelementptr inbounds nuw (%struct.pmix_mca_base_framework_t, ptr @pmix_pfexec_base_framework, i32 0, i32 11), align 4, !tbaa !7
  %41 = call ptr @pmix_util_print_name_args(ptr noundef getelementptr inbounds nuw (%struct.pmix_globals_t, ptr @pmix_globals, i32 0, i32 1))
  %42 = load i32, ptr %5, align 4, !tbaa !55
  %43 = load i32, ptr %7, align 4, !tbaa !55
  %44 = call ptr @__errno_location() #16
  %45 = load i32, ptr %44, align 4, !tbaa !55
  call void (i32, ptr, ...) @pmix_output(i32 noundef %40, ptr noundef @.str, ptr noundef %41, i32 noundef %42, i32 noundef %43, i32 noundef %45)
  br label %46

46:                                               ; preds = %39, %32, %29, %26
  %47 = call ptr @__errno_location() #16
  %48 = load i32, ptr %47, align 4, !tbaa !55
  store i32 %48, ptr %3, align 4
  store i32 1, ptr %8, align 4
  br label %69

49:                                               ; preds = %22
  br label %50

50:                                               ; preds = %49, %17
  %51 = load i32, ptr getelementptr inbounds nuw (%struct.pmix_mca_base_framework_t, ptr @pmix_pfexec_base_framework, i32 0, i32 11), align 4, !tbaa !7
  %52 = icmp sge i32 %51, 0
  br i1 %52, label %53, label %68

53:                                               ; preds = %50
  %54 = load i32, ptr getelementptr inbounds nuw (%struct.pmix_mca_base_framework_t, ptr @pmix_pfexec_base_framework, i32 0, i32 11), align 4, !tbaa !7
  %55 = icmp slt i32 %54, 64
  br i1 %55, label %56, label %68

56:                                               ; preds = %53
  %57 = load i32, ptr getelementptr inbounds nuw (%struct.pmix_mca_base_framework_t, ptr @pmix_pfexec_base_framework, i32 0, i32 11), align 4, !tbaa !7
  %58 = sext i32 %57 to i64
  %59 = getelementptr inbounds [0 x %struct.pmix_output_desc_t], ptr @pmix_output_info, i64 0, i64 %58
  %60 = getelementptr inbounds nuw %struct.pmix_output_desc_t, ptr %59, i32 0, i32 2
  %61 = load i32, ptr %60, align 4, !tbaa !19
  %62 = icmp sge i32 %61, 2
  br i1 %62, label %63, label %68

63:                                               ; preds = %56
  %64 = load i32, ptr getelementptr inbounds nuw (%struct.pmix_mca_base_framework_t, ptr @pmix_pfexec_base_framework, i32 0, i32 11), align 4, !tbaa !7
  %65 = call ptr @pmix_util_print_name_args(ptr noundef getelementptr inbounds nuw (%struct.pmix_globals_t, ptr @pmix_globals, i32 0, i32 1))
  %66 = load i32, ptr %5, align 4, !tbaa !55
  %67 = load i32, ptr %7, align 4, !tbaa !55
  call void (i32, ptr, ...) @pmix_output(i32 noundef %64, ptr noundef @.str.1, ptr noundef %65, i32 noundef %66, i32 noundef %67)
  br label %68

68:                                               ; preds = %63, %56, %53, %50
  store i32 0, ptr %3, align 4
  store i32 1, ptr %8, align 4
  br label %69

69:                                               ; preds = %68, %46
  call void @llvm.lifetime.end.p0(i64 4, ptr %7) #14
  call void @llvm.lifetime.end.p0(i64 4, ptr %6) #14
  %70 = load i32, ptr %3, align 4
  ret i32 %70
}